(dp0
S'mode_confidence'
p1
cnumpy.core.multiarray
scalar
p2
(cnumpy
dtype
p3
(S'f8'
p4
I0
I1
tp5
Rp6
(I3
S'<'
p7
NNNI-1
I-1
I0
tp8
bS'\x0e-\xb2\x9d\xef\xa7\xde?'
p9
tp10
Rp11
sS'end_of_fade_in'
p12
g2
(g6
S'\x17\xd9\xce\xf7S\xe3\xe1?'
p13
tp14
Rp15
sS'key_confidence'
p16
g2
(g6
S'^\xbaI\x0c\x02+\xd7?'
p17
tp18
Rp19
sS'energy'
p20
g2
(g6
S'\x00\x00\x00\x00\x00\x00\x00\x00'
p21
tp22
Rp23
sS'release_7digitalid'
p24
g2
(g3
(S'i4'
p25
I0
I1
tp26
Rp27
(I3
S'<'
p28
NNNI-1
I-1
I0
tp29
bS'v\xe4\n\x00'
p30
tp31
Rp32
sS'year'
p33
g2
(g27
S'\x00\x00\x00\x00'
p34
tp35
Rp36
sS'duration'
p37
g2
(g6
S'\xc8\xb5\xa1b\x9c\xf2o@'
p38
tp39
Rp40
sS'artist_mbid'
p41
g2
(g3
(S'S0'
p42
I0
I1
tp43
Rp44
(I3
S'|'
p45
NNNI0
I1
I0
tp46
bS''
p47
tp48
Rp49
sS'artist_longitude'
p50
g2
(g6
S'\x00\x00\x00\x00\x00\x00\xf8\x7f'
p51
tp52
Rp53
sS'track_7digitalid'
p54
g2
(g27
S'\xb0\xd2x\x00'
p55
tp56
Rp57
sS'time_signature_confidence'
p58
g2
(g6
S'Nb\x10X9\xb4\xd8?'
p59
tp60
Rp61
sS'track_id'
p62
g2
(g3
(S'S18'
p63
I0
I1
tp64
Rp65
(I3
S'|'
p66
NNNI18
I1
I0
tp67
bS'TRAOYSR12903CBC762'
p68
tp69
Rp70
sS'title'
p71
g2
(g3
(S'S17'
p72
I0
I1
tp73
Rp74
(I3
S'|'
p75
NNNI17
I1
I0
tp76
bS'Held Der Tastatur'
p77
tp78
Rp79
sS'artist_playmeid'
p80
g2
(g27
S'\xff\xff\xff\xff'
p81
tp82
Rp83
sS'artist_7digitalid'
p84
g2
(g27
S'5\x97\x07\x00'
p85
tp86
Rp87
sS'danceability'
p88
g2
(g6
S'\x00\x00\x00\x00\x00\x00\x00\x00'
p89
tp90
Rp91
sS'artist_familiarity'
p92
g2
(g6
S'\x00\x00\x00\x00\x00\x00\xf8\x7f'
p93
tp94
Rp95
sS'artist_id'
p96
g2
(g3
(S'S18'
p97
I0
I1
tp98
Rp99
(I3
S'|'
p100
NNNI18
I1
I0
tp101
bS'AROHUUU1269FB35937'
p102
tp103
Rp104
sS'start_of_fade_out'
p105
g2
(g6
S'!\xb0rh\x91\xe1n@'
p106
tp107
Rp108
sS'analysis_sample_rate'
p109
g2
(g27
S'"V\x00\x00'
p110
tp111
Rp112
sS'pickle_id'
p113
S'TRAOYSR12903CBC762'
p114
sS'time_signature'
p115
g2
(g27
S'\x04\x00\x00\x00'
p116
tp117
Rp118
sS'tempo'
p119
g2
(g6
S'\x91\xed|?5\nb@'
p120
tp121
Rp122
sS'artist_name'
p123
g2
(g3
(S'S27'
p124
I0
I1
tp125
Rp126
(I3
S'|'
p127
NNNI27
I1
I0
tp128
bS'Melanie And The Secret Army'
p129
tp130
Rp131
sS'artist_hotttnesss'
p132
g2
(g6
S'\x00\x00\x00\x00\x00\x00\x00\x00'
p133
tp134
Rp135
sS'key'
p136
g2
(g27
S'\x07\x00\x00\x00'
p137
tp138
Rp139
sS'audio_md5'
p140
g2
(g3
(S'S32'
p141
I0
I1
tp142
Rp143
(I3
S'|'
p144
NNNI32
I1
I0
tp145
bS'811eef4c6854a67acb3da3de40fb07da'
p146
tp147
Rp148
sS'artist_location'
p149
g2
(g3
(S'S0'
p150
I0
I1
tp151
Rp152
(I3
S'|'
p153
NNNI0
I1
I0
tp154
bg47
tp155
Rp156
sS'song_id'
p157
g2
(g3
(S'S18'
p158
I0
I1
tp159
Rp160
(I3
S'|'
p161
NNNI18
I1
I0
tp162
bS'SOPXLMX12AB01884D1'
p163
tp164
Rp165
sS'artist_latitude'
p166
g2
(g6
S'\x00\x00\x00\x00\x00\x00\xf8\x7f'
p167
tp168
Rp169
sS'mode'
p170
g2
(g27
S'\x01\x00\x00\x00'
p171
tp172
Rp173
sS'song_hotttnesss'
p174
g2
(g6
S'\x00\x00\x00\x00\x00\x00\x00\x00'
p175
tp176
Rp177
sS'release'
p178
g2
(g3
(S'S12'
p179
I0
I1
tp180
Rp181
(I3
S'|'
p182
NNNI12
I1
I0
tp183
bS'Wahre L\xc3\xbcgen'
p184
tp185
Rp186
sS'loudness'
p187
g2
(g6
S'`\xe5\xd0"\xdb\xf9\x00\xc0'
p188
tp189
Rp190
s.