(dp0
S'mode_confidence'
p1
cnumpy.core.multiarray
scalar
p2
(cnumpy
dtype
p3
(S'f8'
p4
I0
I1
tp5
Rp6
(I3
S'<'
p7
NNNI-1
I-1
I0
tp8
bS'\xdb\xf9~j\xbct\xe3?'
p9
tp10
Rp11
sS'end_of_fade_in'
p12
g2
(g6
S'\xd5x\xe9&1\x88\x10@'
p13
tp14
Rp15
sS'key_confidence'
p16
g2
(g6
S'\xf0\xa7\xc6K7\x89\xe1?'
p17
tp18
Rp19
sS'energy'
p20
g2
(g6
S'\x00\x00\x00\x00\x00\x00\x00\x00'
p21
tp22
Rp23
sS'release_7digitalid'
p24
g2
(g3
(S'i4'
p25
I0
I1
tp26
Rp27
(I3
S'<'
p28
NNNI-1
I-1
I0
tp29
bS'\xab1\x0c\x00'
p30
tp31
Rp32
sS'year'
p33
g2
(g27
S'\x00\x00\x00\x00'
p34
tp35
Rp36
sS'duration'
p37
g2
(g6
S'1%\x92\xe8\xe5\xd3|@'
p38
tp39
Rp40
sS'artist_mbid'
p41
g2
(g3
(S'S0'
p42
I0
I1
tp43
Rp44
(I3
S'|'
p45
NNNI0
I1
I0
tp46
bS''
p47
tp48
Rp49
sS'artist_longitude'
p50
g2
(g6
S'\x00\x00\x00\x00\x00\x00\xf8\x7f'
p51
tp52
Rp53
sS'track_7digitalid'
p54
g2
(g27
S'g\xdc\x86\x00'
p55
tp56
Rp57
sS'time_signature_confidence'
p58
g2
(g6
S'\x00\x00\x00\x00\x00\x00\xf0?'
p59
tp60
Rp61
sS'track_id'
p62
g2
(g3
(S'S18'
p63
I0
I1
tp64
Rp65
(I3
S'|'
p66
NNNI18
I1
I0
tp67
bS'TRAFZTM12903CB1F7B'
p68
tp69
Rp70
sS'title'
p71
g2
(g3
(S'S14'
p72
I0
I1
tp73
Rp74
(I3
S'|'
p75
NNNI14
I1
I0
tp76
bS'Get It Started'
p77
tp78
Rp79
sS'artist_playmeid'
p80
g2
(g27
S'\xff\xff\xff\xff'
p81
tp82
Rp83
sS'artist_7digitalid'
p84
g2
(g27
S'\xb5\xa0\x07\x00'
p85
tp86
Rp87
sS'danceability'
p88
g2
(g6
S'\x00\x00\x00\x00\x00\x00\x00\x00'
p89
tp90
Rp91
sS'artist_familiarity'
p92
g2
(g6
S'\xa0\x1d\xb23t4\xca?'
p93
tp94
Rp95
sS'artist_id'
p96
g2
(g3
(S'S18'
p97
I0
I1
tp98
Rp99
(I3
S'|'
p100
NNNI18
I1
I0
tp101
bS'ARGFOAI1269FB3852B'
p102
tp103
Rp104
sS'start_of_fade_out'
p105
g2
(g6
S'w\xbe\x9f\x1a/\x8d|@'
p106
tp107
Rp108
sS'analysis_sample_rate'
p109
g2
(g27
S'"V\x00\x00'
p110
tp111
Rp112
sS'pickle_id'
p113
S'TRAFZTM12903CB1F7B'
p114
sS'time_signature'
p115
g2
(g27
S'\x03\x00\x00\x00'
p116
tp117
Rp118
sS'tempo'
p119
g2
(g6
S'\xf8S\xe3\xa5\x9bTU@'
p120
tp121
Rp122
sS'artist_name'
p123
g2
(g3
(S'S6'
p124
I0
I1
tp125
Rp126
(I3
S'|'
p127
NNNI6
I1
I0
tp128
bS'2Fresh'
p129
tp130
Rp131
sS'artist_hotttnesss'
p132
g2
(g6
S'\x83%\x1c\x8a\xees\xd0?'
p133
tp134
Rp135
sS'key'
p136
g2
(g27
S'\x08\x00\x00\x00'
p137
tp138
Rp139
sS'audio_md5'
p140
g2
(g3
(S'S32'
p141
I0
I1
tp142
Rp143
(I3
S'|'
p144
NNNI32
I1
I0
tp145
bS'010be7c5672a11f3e8cad691ec982a29'
p146
tp147
Rp148
sS'artist_location'
p149
g2
(g3
(S'S0'
p150
I0
I1
tp151
Rp152
(I3
S'|'
p153
NNNI0
I1
I0
tp154
bg47
tp155
Rp156
sS'song_id'
p157
g2
(g3
(S'S18'
p158
I0
I1
tp159
Rp160
(I3
S'|'
p161
NNNI18
I1
I0
tp162
bS'SOOKDUJ12AB018BB67'
p163
tp164
Rp165
sS'artist_latitude'
p166
g2
(g6
S'\x00\x00\x00\x00\x00\x00\xf8\x7f'
p167
tp168
Rp169
sS'mode'
p170
g2
(g27
S'\x01\x00\x00\x00'
p171
tp172
Rp173
sS'song_hotttnesss'
p174
g2
(g6
S'\x00\x00\x00\x00\x00\x00\xf8\x7f'
p175
tp176
Rp177
sS'release'
p178
g2
(g3
(S'S23'
p179
I0
I1
tp180
Rp181
(I3
S'|'
p182
NNNI23
I1
I0
tp183
bS'2Fresh - Get It Started'
p184
tp185
Rp186
sS'loudness'
p187
g2
(g6
S'\xb0rh\x91\xed\xfc\x15\xc0'
p188
tp189
Rp190
s.