(dp0
S'mode_confidence'
p1
cnumpy.core.multiarray
scalar
p2
(cnumpy
dtype
p3
(S'f8'
p4
I0
I1
tp5
Rp6
(I3
S'<'
p7
NNNI-1
I-1
I0
tp8
bS'\x1dZd;\xdfO\xd5?'
p9
tp10
Rp11
sS'end_of_fade_in'
p12
g2
(g6
S'\x9c\xc4 \xb0rh\x05@'
p13
tp14
Rp15
sS'key_confidence'
p16
g2
(g6
S'\xc3\xf5(\\\x8f\xc2\xe1?'
p17
tp18
Rp19
sS'energy'
p20
g2
(g6
S'\x00\x00\x00\x00\x00\x00\x00\x00'
p21
tp22
Rp23
sS'release_7digitalid'
p24
g2
(g3
(S'i4'
p25
I0
I1
tp26
Rp27
(I3
S'<'
p28
NNNI-1
I-1
I0
tp29
bS'\xd3H\x04\x00'
p30
tp31
Rp32
sS'year'
p33
g2
(g27
S'\xb3\x07\x00\x00'
p34
tp35
Rp36
sS'duration'
p37
g2
(g6
S'\x93\x005\xb5l\xf7v@'
p38
tp39
Rp40
sS'artist_mbid'
p41
g2
(g3
(S'S36'
p42
I0
I1
tp43
Rp44
(I3
S'|'
p45
NNNI36
I1
I0
tp46
bS'43988f1b-d49c-4959-a80f-83ded3a321d6'
p47
tp48
Rp49
sS'artist_longitude'
p50
g2
(g6
S'\x00\x00\x00\x00\x00\x00\xf8\x7f'
p51
tp52
Rp53
sS'track_7digitalid'
p54
g2
(g27
S'\x16\xd3/\x00'
p55
tp56
Rp57
sS'time_signature_confidence'
p58
g2
(g6
S'\x00\x00\x00\x00\x00\x00\x00\x00'
p59
tp60
Rp61
sS'track_id'
p62
g2
(g3
(S'S18'
p63
I0
I1
tp64
Rp65
(I3
S'|'
p66
NNNI18
I1
I0
tp67
bS'TRAHOSP128F4260E9B'
p68
tp69
Rp70
sS'title'
p71
g2
(g3
(S'S4'
p72
I0
I1
tp73
Rp74
(I3
S'|'
p75
NNNI4
I1
I0
tp76
bS'Jody'
p77
tp78
Rp79
sS'artist_playmeid'
p80
g2
(g27
S't1\x00\x00'
p81
tp82
Rp83
sS'artist_7digitalid'
p84
g2
(g27
S'\xb9A\x00\x00'
p85
tp86
Rp87
sS'danceability'
p88
g2
(g6
S'\x00\x00\x00\x00\x00\x00\x00\x00'
p89
tp90
Rp91
sS'artist_familiarity'
p92
g2
(g6
S'\x9b\x9b8\x80h\xeb\xe0?'
p93
tp94
Rp95
sS'artist_id'
p96
g2
(g3
(S'S18'
p97
I0
I1
tp98
Rp99
(I3
S'|'
p100
NNNI18
I1
I0
tp101
bS'AR2BBHS1187FB4AE06'
p102
tp103
Rp104
sS'start_of_fade_out'
p105
g2
(g6
S'{\x14\xaeG\xe1\xf6t@'
p106
tp107
Rp108
sS'analysis_sample_rate'
p109
g2
(g27
S'"V\x00\x00'
p110
tp111
Rp112
sS'pickle_id'
p113
S'TRAHOSP128F4260E9B'
p114
sS'time_signature'
p115
g2
(g27
S'\x01\x00\x00\x00'
p116
tp117
Rp118
sS'tempo'
p119
g2
(g6
S'\xe1z\x14\xaeG\xedc@'
p120
tp121
Rp122
sS'artist_name'
p123
g2
(g3
(S'S15'
p124
I0
I1
tp125
Rp126
(I3
S'|'
p127
NNNI15
I1
I0
tp128
bS'Jeff Beck Group'
p129
tp130
Rp131
sS'artist_hotttnesss'
p132
g2
(g6
S']\xeaF\xe1F\x91\xd4?'
p133
tp134
Rp135
sS'key'
p136
g2
(g27
S'\x00\x00\x00\x00'
p137
tp138
Rp139
sS'audio_md5'
p140
g2
(g3
(S'S32'
p141
I0
I1
tp142
Rp143
(I3
S'|'
p144
NNNI32
I1
I0
tp145
bS'e14783a1320f0b7013d1573bd145b9b2'
p146
tp147
Rp148
sS'artist_location'
p149
g2
(g3
(S'S0'
p150
I0
I1
tp151
Rp152
(I3
S'|'
p153
NNNI0
I1
I0
tp154
bS''
p155
tp156
Rp157
sS'song_id'
p158
g2
(g3
(S'S18'
p159
I0
I1
tp160
Rp161
(I3
S'|'
p162
NNNI18
I1
I0
tp163
bS'SOCXWVO12A58A7E7C6'
p164
tp165
Rp166
sS'artist_latitude'
p167
g2
(g6
S'\x00\x00\x00\x00\x00\x00\xf8\x7f'
p168
tp169
Rp170
sS'mode'
p171
g2
(g27
S'\x01\x00\x00\x00'
p172
tp173
Rp174
sS'song_hotttnesss'
p175
g2
(g6
S'~\x82\xe3\xcal2\xd2?'
p176
tp177
Rp178
sS'release'
p179
g2
(g3
(S'S23'
p180
I0
I1
tp181
Rp182
(I3
S'|'
p183
NNNI23
I1
I0
tp184
bS'Original Album Classics'
p185
tp186
Rp187
sS'loudness'
p188
g2
(g6
S'\x17\xd9\xce\xf7S#)\xc0'
p189
tp190
Rp191
s.