(dp0
S'mode_confidence'
p1
cnumpy.core.multiarray
scalar
p2
(cnumpy
dtype
p3
(S'f8'
p4
I0
I1
tp5
Rp6
(I3
S'<'
p7
NNNI-1
I-1
I0
tp8
bS'\xf8S\xe3\xa5\x9b\xc4\xd0?'
p9
tp10
Rp11
sS'end_of_fade_in'
p12
g2
(g6
S'D\x8bl\xe7\xfb\xa9\xc1?'
p13
tp14
Rp15
sS'key_confidence'
p16
g2
(g6
S'j\xbct\x93\x18\x04\xa6?'
p17
tp18
Rp19
sS'energy'
p20
g2
(g6
S'\x00\x00\x00\x00\x00\x00\x00\x00'
p21
tp22
Rp23
sS'release_7digitalid'
p24
g2
(g3
(S'i4'
p25
I0
I1
tp26
Rp27
(I3
S'<'
p28
NNNI-1
I-1
I0
tp29
bS'\xae\xb4\x00\x00'
p30
tp31
Rp32
sS'year'
p33
g2
(g27
S'\xd6\x07\x00\x00'
p34
tp35
Rp36
sS'duration'
p37
g2
(g6
S'\x165\x98\x86\xe1\x7fl@'
p38
tp39
Rp40
sS'artist_mbid'
p41
g2
(g3
(S'S36'
p42
I0
I1
tp43
Rp44
(I3
S'|'
p45
NNNI36
I1
I0
tp46
bS'1ab5659c-aa39-479e-8920-92eaa98999fe'
p47
tp48
Rp49
sS'artist_longitude'
p50
g2
(g6
S'\x00\x00\x00\x00\x00\x00\xf8\x7f'
p51
tp52
Rp53
sS'track_7digitalid'
p54
g2
(g27
S'\x9e\x8a\x07\x00'
p55
tp56
Rp57
sS'time_signature_confidence'
p58
g2
(g6
S'\x83\xc0\xca\xa1E\xb6\xeb?'
p59
tp60
Rp61
sS'track_id'
p62
g2
(g3
(S'S18'
p63
I0
I1
tp64
Rp65
(I3
S'|'
p66
NNNI18
I1
I0
tp67
bS'TRAJJBG128F148A7CA'
p68
tp69
Rp70
sS'title'
p71
g2
(g3
(S'S5'
p72
I0
I1
tp73
Rp74
(I3
S'|'
p75
NNNI5
I1
I0
tp76
bS'Awake'
p77
tp78
Rp79
sS'artist_playmeid'
p80
g2
(g27
S'\xfaO\x01\x00'
p81
tp82
Rp83
sS'artist_7digitalid'
p84
g2
(g27
S'\xf0s\x00\x00'
p85
tp86
Rp87
sS'danceability'
p88
g2
(g6
S'\x00\x00\x00\x00\x00\x00\x00\x00'
p89
tp90
Rp91
sS'artist_familiarity'
p92
g2
(g6
S'\xc3V\x91\n\x96q\xe3?'
p93
tp94
Rp95
sS'artist_id'
p96
g2
(g3
(S'S18'
p97
I0
I1
tp98
Rp99
(I3
S'|'
p100
NNNI18
I1
I0
tp101
bS'ARZQPE11187FB40939'
p102
tp103
Rp104
sS'start_of_fade_out'
p105
g2
(g6
S'\xf6(\\\x8f\xc2ej@'
p106
tp107
Rp108
sS'analysis_sample_rate'
p109
g2
(g27
S'"V\x00\x00'
p110
tp111
Rp112
sS'pickle_id'
p113
S'TRAJJBG128F148A7CA'
p114
sS'time_signature'
p115
g2
(g27
S'\x04\x00\x00\x00'
p116
tp117
Rp118
sS'tempo'
p119
g2
(g6
S'33333\x7fb@'
p120
tp121
Rp122
sS'artist_name'
p123
g2
(g3
(S'S17'
p124
I0
I1
tp125
Rp126
(I3
S'|'
p127
NNNI17
I1
I0
tp128
bS'The Panic Channel'
p129
tp130
Rp131
sS'artist_hotttnesss'
p132
g2
(g6
S'vzH\xb8\x8d\xd1\xd5?'
p133
tp134
Rp135
sS'key'
p136
g2
(g27
S'\t\x00\x00\x00'
p137
tp138
Rp139
sS'audio_md5'
p140
g2
(g3
(S'S32'
p141
I0
I1
tp142
Rp143
(I3
S'|'
p144
NNNI32
I1
I0
tp145
bS'266a230558f4ffc0f2604087c3aa79c5'
p146
tp147
Rp148
sS'artist_location'
p149
g2
(g3
(S'S0'
p150
I0
I1
tp151
Rp152
(I3
S'|'
p153
NNNI0
I1
I0
tp154
bS''
p155
tp156
Rp157
sS'song_id'
p158
g2
(g3
(S'S18'
p159
I0
I1
tp160
Rp161
(I3
S'|'
p162
NNNI18
I1
I0
tp163
bS'SOVXGLT12A6D4F952C'
p164
tp165
Rp166
sS'artist_latitude'
p167
g2
(g6
S'\x00\x00\x00\x00\x00\x00\xf8\x7f'
p168
tp169
Rp170
sS'mode'
p171
g2
(g27
S'\x01\x00\x00\x00'
p172
tp173
Rp174
sS'song_hotttnesss'
p175
g2
(g6
S'\x93\xf5\xe8\x0f\xde\x03\xe1?'
p176
tp177
Rp178
sS'release'
p179
g2
(g3
(S'S5'
p180
I0
I1
tp181
Rp182
(I3
S'|'
p183
NNNI5
I1
I0
tp184
bS'(ONe)'
p185
tp186
Rp187
sS'loudness'
p188
g2
(g6
S'\xa2E\xb6\xf3\xfd\xd4\t\xc0'
p189
tp190
Rp191
s.