(dp0
S'mode_confidence'
p1
cnumpy.core.multiarray
scalar
p2
(cnumpy
dtype
p3
(S'f8'
p4
I0
I1
tp5
Rp6
(I3
S'<'
p7
NNNI-1
I-1
I0
tp8
bS'\x9c\xc4 \xb0rh\xd1?'
p9
tp10
Rp11
sS'end_of_fade_in'
p12
g2
(g6
S'\x9c\xc4 \xb0rh\xb1?'
p13
tp14
Rp15
sS'key_confidence'
p16
g2
(g6
S'J\x0c\x02+\x87\x16\xd9?'
p17
tp18
Rp19
sS'energy'
p20
g2
(g6
S'\x00\x00\x00\x00\x00\x00\x00\x00'
p21
tp22
Rp23
sS'release_7digitalid'
p24
g2
(g3
(S'i4'
p25
I0
I1
tp26
Rp27
(I3
S'<'
p28
NNNI-1
I-1
I0
tp29
bS"\xc6'\x08\x00"
p30
tp31
Rp32
sS'year'
p33
g2
(g27
S'\x00\x00\x00\x00'
p34
tp35
Rp36
sS'duration'
p37
g2
(g6
S'D\x8bl\xe7\xfb\xf1b@'
p38
tp39
Rp40
sS'artist_mbid'
p41
g2
(g3
(S'S0'
p42
I0
I1
tp43
Rp44
(I3
S'|'
p45
NNNI0
I1
I0
tp46
bS''
p47
tp48
Rp49
sS'artist_longitude'
p50
g2
(g6
S'\x00\x00\x00\x00\x00\x00\xf8\x7f'
p51
tp52
Rp53
sS'track_7digitalid'
p54
g2
(g27
S'\x99-Z\x00'
p55
tp56
Rp57
sS'time_signature_confidence'
p58
g2
(g6
S'\x91\xed|?5^\xee?'
p59
tp60
Rp61
sS'track_id'
p62
g2
(g3
(S'S18'
p63
I0
I1
tp64
Rp65
(I3
S'|'
p66
NNNI18
I1
I0
tp67
bS'TRBFOEB128F9305372'
p68
tp69
Rp70
sS'title'
p71
g2
(g3
(S'S40'
p72
I0
I1
tp73
Rp74
(I3
S'|'
p75
NNNI40
I1
I0
tp76
bS'It Must Be Everywhere (Complete Version)'
p77
tp78
Rp79
sS'artist_playmeid'
p80
g2
(g27
S'\xff\xff\xff\xff'
p81
tp82
Rp83
sS'artist_7digitalid'
p84
g2
(g27
S'&\xfb\x05\x00'
p85
tp86
Rp87
sS'danceability'
p88
g2
(g6
S'\x00\x00\x00\x00\x00\x00\x00\x00'
p89
tp90
Rp91
sS'artist_familiarity'
p92
g2
(g6
S'\xff\x11\xfc>\xdc\xa8\xdf?'
p93
tp94
Rp95
sS'artist_id'
p96
g2
(g3
(S'S18'
p97
I0
I1
tp98
Rp99
(I3
S'|'
p100
NNNI18
I1
I0
tp101
bS'ARYWCFZ11E2835CFDD'
p102
tp103
Rp104
sS'start_of_fade_out'
p105
g2
(g6
S'B`\xe5\xd0"Ga@'
p106
tp107
Rp108
sS'analysis_sample_rate'
p109
g2
(g27
S'"V\x00\x00'
p110
tp111
Rp112
sS'pickle_id'
p113
S'TRBFOEB128F9305372'
p114
sS'time_signature'
p115
g2
(g27
S'\x04\x00\x00\x00'
p116
tp117
Rp118
sS'tempo'
p119
g2
(g6
S'J\x0c\x02+\x87\xfad@'
p120
tp121
Rp122
sS'artist_name'
p123
g2
(g3
(S'S4'
p124
I0
I1
tp125
Rp126
(I3
S'|'
p127
NNNI4
I1
I0
tp128
bS'Nazz'
p129
tp130
Rp131
sS'artist_hotttnesss'
p132
g2
(g6
S'p\x82\xca\xf7\xda\x95\xd8?'
p133
tp134
Rp135
sS'key'
p136
g2
(g27
S'\x05\x00\x00\x00'
p137
tp138
Rp139
sS'audio_md5'
p140
g2
(g3
(S'S32'
p141
I0
I1
tp142
Rp143
(I3
S'|'
p144
NNNI32
I1
I0
tp145
bS'a1d45e30dcecdbdc42647211ee53a97e'
p146
tp147
Rp148
sS'artist_location'
p149
g2
(g3
(S'S0'
p150
I0
I1
tp151
Rp152
(I3
S'|'
p153
NNNI0
I1
I0
tp154
bg47
tp155
Rp156
sS'song_id'
p157
g2
(g3
(S'S18'
p158
I0
I1
tp159
Rp160
(I3
S'|'
p161
NNNI18
I1
I0
tp162
bS'SOJHDDU12A8C143F70'
p163
tp164
Rp165
sS'artist_latitude'
p166
g2
(g6
S'\x00\x00\x00\x00\x00\x00\xf8\x7f'
p167
tp168
Rp169
sS'mode'
p170
g2
(g27
S'\x01\x00\x00\x00'
p171
tp172
Rp173
sS'song_hotttnesss'
p174
g2
(g6
S'\xba\x98\x80\x04\xd5k\xd5?'
p175
tp176
Rp177
sS'release'
p178
g2
(g3
(S'S13'
p179
I0
I1
tp180
Rp181
(I3
S'|'
p182
NNNI13
I1
I0
tp183
bS'13th And Pine'
p184
tp185
Rp186
sS'loudness'
p187
g2
(g6
S'\xbaI\x0c\x02+\xc7#\xc0'
p188
tp189
Rp190
s.